target datalayout = "e-m:e-p270:32:32-p271:32:32-p272:64:64-i64:64-i128:128-f80:128-n8:16:32:64-S128"
target triple = "x86_64-pc-linux-gnu"

%"class.clang::FPOptions" = type { i32 }
%"class.clang::FPOptionsOverride" = type { %"class.clang::FPOptions", i32 }

; Function Attrs: mustprogress nounwind uwtable
define linkonce_odr hidden void @_ZN5clang17FPOptionsOverrideC2ENS_9FPOptionsEj(ptr noundef nonnull align 4 dereferenceable(8) %0, i32 %1, i32 noundef %2) unnamed_addr #0 comdat align 2 {
  %4 = alloca %"class.clang::FPOptions", align 4
  %5 = alloca ptr, align 8
  %6 = alloca i32, align 4
  %7 = getelementptr inbounds nuw %"class.clang::FPOptions", ptr %4, i32 0, i32 0
  store i32 %1, ptr %7, align 4
  store ptr %0, ptr %5, align 8
  store i32 %2, ptr %6, align 4
  %8 = load ptr, ptr %5, align 8
  %9 = getelementptr inbounds nuw %"class.clang::FPOptionsOverride", ptr %8, i32 0, i32 0
  call void @llvm.memcpy.p0.p0.i64(ptr align 4 %9, ptr align 4 %4, i64 4, i1 false)
  %10 = getelementptr inbounds nuw %"class.clang::FPOptionsOverride", ptr %8, i32 0, i32 1
  %11 = load i32, ptr %6, align 4
  store i32 %11, ptr %10, align 4
  ret void
}

; Function Attrs: mustprogress nounwind uwtable
define linkonce_odr hidden noundef i32 @_ZNK5clang9FPOptions15getComplexRangeEv(ptr noundef nonnull align 4 dereferenceable(4) %0) #0 comdat align 2 {
  %2 = alloca ptr, align 8
  store ptr %0, ptr %2, align 8
  %3 = load ptr, ptr %2, align 8
  %4 = getelementptr inbounds nuw %"class.clang::FPOptions", ptr %3, i32 0, i32 0
  %5 = load i32, ptr %4, align 4
  %6 = and i32 %5, 12582912
  %7 = lshr i32 %6, 22
  ret i32 %7
}

; Function Attrs: mustprogress nounwind uwtable
define linkonce_odr hidden noundef zeroext i1 @_ZNK5clang9FPOptions12getMathErrnoEv(ptr noundef nonnull align 4 dereferenceable(4) %0) #0 comdat align 2 {
  %2 = alloca ptr, align 8
  store ptr %0, ptr %2, align 8
  %3 = load ptr, ptr %2, align 8
  %4 = getelementptr inbounds nuw %"class.clang::FPOptions", ptr %3, i32 0, i32 0
  %5 = load i32, ptr %4, align 4
  %6 = and i32 %5, 2097152
  %7 = lshr i32 %6, 21
  %8 = icmp ne i32 %7, 0
  ret i1 %8
}

; Function Attrs: mustprogress nounwind uwtable
define linkonce_odr hidden noundef i32 @_ZNK5clang9FPOptions26getBFloat16ExcessPrecisionEv(ptr noundef nonnull align 4 dereferenceable(4) %0) #0 comdat align 2 {
  %2 = alloca ptr, align 8
  store ptr %0, ptr %2, align 8
  %3 = load ptr, ptr %2, align 8
  %4 = getelementptr inbounds nuw %"class.clang::FPOptions", ptr %3, i32 0, i32 0
  %5 = load i32, ptr %4, align 4
  %6 = and i32 %5, 1572864
  %7 = lshr i32 %6, 19
  ret i32 %7
}

; Function Attrs: mustprogress nounwind uwtable
define linkonce_odr hidden noundef i32 @_ZNK5clang9FPOptions25getFloat16ExcessPrecisionEv(ptr noundef nonnull align 4 dereferenceable(4) %0) #0 comdat align 2 {
  %2 = alloca ptr, align 8
  store ptr %0, ptr %2, align 8
  %3 = load ptr, ptr %2, align 8
  %4 = getelementptr inbounds nuw %"class.clang::FPOptions", ptr %3, i32 0, i32 0
  %5 = load i32, ptr %4, align 4
  %6 = and i32 %5, 393216
  %7 = lshr i32 %6, 17
  ret i32 %7
}

; Function Attrs: mustprogress nounwind uwtable
define linkonce_odr hidden noundef i32 @_ZNK5clang9FPOptions15getFPEvalMethodEv(ptr noundef nonnull align 4 dereferenceable(4) %0) #0 comdat align 2 {
  %2 = alloca ptr, align 8
  store ptr %0, ptr %2, align 8
  %3 = load ptr, ptr %2, align 8
  %4 = getelementptr inbounds nuw %"class.clang::FPOptions", ptr %3, i32 0, i32 0
  %5 = load i32, ptr %4, align 4
  %6 = and i32 %5, 98304
  %7 = lshr i32 %6, 15
  ret i32 %7
}

; Function Attrs: mustprogress nounwind uwtable
define linkonce_odr hidden noundef zeroext i1 @_ZNK5clang9FPOptions18getAllowApproxFuncEv(ptr noundef nonnull align 4 dereferenceable(4) %0) #0 comdat align 2 {
  %2 = alloca ptr, align 8
  store ptr %0, ptr %2, align 8
  %3 = load ptr, ptr %2, align 8
  %4 = getelementptr inbounds nuw %"class.clang::FPOptions", ptr %3, i32 0, i32 0
  %5 = load i32, ptr %4, align 4
  %6 = and i32 %5, 16384
  %7 = lshr i32 %6, 14
  %8 = icmp ne i32 %7, 0
  ret i1 %8
}

; Function Attrs: mustprogress nounwind uwtable
define linkonce_odr hidden noundef zeroext i1 @_ZNK5clang9FPOptions18getAllowReciprocalEv(ptr noundef nonnull align 4 dereferenceable(4) %0) #0 comdat align 2 {
  %2 = alloca ptr, align 8
  store ptr %0, ptr %2, align 8
  %3 = load ptr, ptr %2, align 8
  %4 = getelementptr inbounds nuw %"class.clang::FPOptions", ptr %3, i32 0, i32 0
  %5 = load i32, ptr %4, align 4
  %6 = and i32 %5, 8192
  %7 = lshr i32 %6, 13
  %8 = icmp ne i32 %7, 0
  ret i1 %8
}

; Function Attrs: mustprogress nounwind uwtable
define linkonce_odr hidden noundef zeroext i1 @_ZNK5clang9FPOptions15getNoSignedZeroEv(ptr noundef nonnull align 4 dereferenceable(4) %0) #0 comdat align 2 {
  %2 = alloca ptr, align 8
  store ptr %0, ptr %2, align 8
  %3 = load ptr, ptr %2, align 8
  %4 = getelementptr inbounds nuw %"class.clang::FPOptions", ptr %3, i32 0, i32 0
  %5 = load i32, ptr %4, align 4
  %6 = and i32 %5, 4096
  %7 = lshr i32 %6, 12
  %8 = icmp ne i32 %7, 0
  ret i1 %8
}

; Function Attrs: mustprogress nounwind uwtable
define linkonce_odr hidden noundef zeroext i1 @_ZNK5clang9FPOptions14getNoHonorInfsEv(ptr noundef nonnull align 4 dereferenceable(4) %0) #0 comdat align 2 {
  %2 = alloca ptr, align 8
  store ptr %0, ptr %2, align 8
  %3 = load ptr, ptr %2, align 8
  %4 = getelementptr inbounds nuw %"class.clang::FPOptions", ptr %3, i32 0, i32 0
  %5 = load i32, ptr %4, align 4
  %6 = and i32 %5, 2048
  %7 = lshr i32 %6, 11
  %8 = icmp ne i32 %7, 0
  ret i1 %8
}

; Function Attrs: mustprogress nounwind uwtable
define linkonce_odr hidden noundef zeroext i1 @_ZNK5clang9FPOptions14getNoHonorNaNsEv(ptr noundef nonnull align 4 dereferenceable(4) %0) #0 comdat align 2 {
  %2 = alloca ptr, align 8
  store ptr %0, ptr %2, align 8
  %3 = load ptr, ptr %2, align 8
  %4 = getelementptr inbounds nuw %"class.clang::FPOptions", ptr %3, i32 0, i32 0
  %5 = load i32, ptr %4, align 4
  %6 = and i32 %5, 1024
  %7 = lshr i32 %6, 10
  %8 = icmp ne i32 %7, 0
  ret i1 %8
}

; Function Attrs: mustprogress nounwind uwtable
define linkonce_odr hidden noundef zeroext i1 @_ZNK5clang9FPOptions21getAllowFPReassociateEv(ptr noundef nonnull align 4 dereferenceable(4) %0) #0 comdat align 2 {
  %2 = alloca ptr, align 8
  store ptr %0, ptr %2, align 8
  %3 = load ptr, ptr %2, align 8
  %4 = getelementptr inbounds nuw %"class.clang::FPOptions", ptr %3, i32 0, i32 0
  %5 = load i32, ptr %4, align 4
  %6 = and i32 %5, 512
  %7 = lshr i32 %6, 9
  %8 = icmp ne i32 %7, 0
  ret i1 %8
}

; Function Attrs: mustprogress nounwind uwtable
define linkonce_odr hidden noundef zeroext i1 @_ZNK5clang9FPOptions18getAllowFEnvAccessEv(ptr noundef nonnull align 4 dereferenceable(4) %0) #0 comdat align 2 {
  %2 = alloca ptr, align 8
  store ptr %0, ptr %2, align 8
  %3 = load ptr, ptr %2, align 8
  %4 = getelementptr inbounds nuw %"class.clang::FPOptions", ptr %3, i32 0, i32 0
  %5 = load i32, ptr %4, align 4
  %6 = and i32 %5, 256
  %7 = lshr i32 %6, 8
  %8 = icmp ne i32 %7, 0
  ret i1 %8
}

; Function Attrs: mustprogress nounwind uwtable
define linkonce_odr hidden noundef i32 @_ZNK5clang9FPOptions25getSpecifiedExceptionModeEv(ptr noundef nonnull align 4 dereferenceable(4) %0) #0 comdat align 2 {
  %2 = alloca ptr, align 8
  store ptr %0, ptr %2, align 8
  %3 = load ptr, ptr %2, align 8
  %4 = getelementptr inbounds nuw %"class.clang::FPOptions", ptr %3, i32 0, i32 0
  %5 = load i32, ptr %4, align 4
  %6 = and i32 %5, 192
  %7 = lshr i32 %6, 6
  ret i32 %7
}

; Function Attrs: mustprogress nounwind uwtable
define linkonce_odr hidden noundef signext i8 @_ZNK5clang9FPOptions20getConstRoundingModeEv(ptr noundef nonnull align 4 dereferenceable(4) %0) #0 comdat align 2 {
  %2 = alloca ptr, align 8
  store ptr %0, ptr %2, align 8
  %3 = load ptr, ptr %2, align 8
  %4 = getelementptr inbounds nuw %"class.clang::FPOptions", ptr %3, i32 0, i32 0
  %5 = load i32, ptr %4, align 4
  %6 = and i32 %5, 56
  %7 = lshr i32 %6, 3
  %8 = trunc i32 %7 to i8
  ret i8 %8
}

; Function Attrs: mustprogress nounwind uwtable
define linkonce_odr hidden noundef zeroext i1 @_ZNK5clang9FPOptions15getRoundingMathEv(ptr noundef nonnull align 4 dereferenceable(4) %0) #0 comdat align 2 {
  %2 = alloca ptr, align 8
  store ptr %0, ptr %2, align 8
  %3 = load ptr, ptr %2, align 8
  %4 = getelementptr inbounds nuw %"class.clang::FPOptions", ptr %3, i32 0, i32 0
  %5 = load i32, ptr %4, align 4
  %6 = and i32 %5, 4
  %7 = lshr i32 %6, 2
  %8 = icmp ne i32 %7, 0
  ret i1 %8
}

; Function Attrs: mustprogress nounwind uwtable
define linkonce_odr hidden noundef i32 @_ZNK5clang9FPOptions17getFPContractModeEv(ptr noundef nonnull align 4 dereferenceable(4) %0) #0 comdat align 2 {
  %2 = alloca ptr, align 8
  store ptr %0, ptr %2, align 8
  %3 = load ptr, ptr %2, align 8
  %4 = getelementptr inbounds nuw %"class.clang::FPOptions", ptr %3, i32 0, i32 0
  %5 = load i32, ptr %4, align 4
  %6 = and i32 %5, 3
  %7 = lshr i32 %6, 0
  ret i32 %7
}

; Function Attrs: mustprogress nounwind uwtable
define dso_local i64 @_ZNK5clang9FPOptions14getChangesSlowERKS0_(ptr noundef nonnull align 4 dereferenceable(4) %0, ptr noundef nonnull align 4 dereferenceable(4) %1) #0 align 2 {
  %3 = alloca %"class.clang::FPOptionsOverride", align 4
  %4 = alloca ptr, align 8
  %5 = alloca ptr, align 8
  %6 = alloca i32, align 4
  %7 = alloca %"class.clang::FPOptions", align 4
  store ptr %0, ptr %4, align 8
  store ptr %1, ptr %5, align 8
  %8 = load ptr, ptr %4, align 8
  store i32 0, ptr %6, align 4
  %9 = call noundef i32 @_ZNK5clang9FPOptions17getFPContractModeEv(ptr noundef nonnull align 4 dereferenceable(4) %8)
  %10 = load ptr, ptr %5, align 8
  %11 = call noundef i32 @_ZNK5clang9FPOptions17getFPContractModeEv(ptr noundef nonnull align 4 dereferenceable(4) %10)
  %12 = icmp ne i32 %9, %11
  br i1 %12, label %13, label %16

13:                                               ; preds = %2
  %14 = load i32, ptr %6, align 4
  %15 = or i32 %14, 3
  store i32 %15, ptr %6, align 4
  br label %16

16:                                               ; preds = %13, %2
  %17 = call noundef zeroext i1 @_ZNK5clang9FPOptions15getRoundingMathEv(ptr noundef nonnull align 4 dereferenceable(4) %8)
  %18 = zext i1 %17 to i32
  %19 = load ptr, ptr %5, align 8
  %20 = call noundef zeroext i1 @_ZNK5clang9FPOptions15getRoundingMathEv(ptr noundef nonnull align 4 dereferenceable(4) %19)
  %21 = zext i1 %20 to i32
  %22 = icmp ne i32 %18, %21
  br i1 %22, label %23, label %26

23:                                               ; preds = %16
  %24 = load i32, ptr %6, align 4
  %25 = or i32 %24, 4
  store i32 %25, ptr %6, align 4
  br label %26

26:                                               ; preds = %23, %16
  %27 = call noundef signext i8 @_ZNK5clang9FPOptions20getConstRoundingModeEv(ptr noundef nonnull align 4 dereferenceable(4) %8)
  %28 = load ptr, ptr %5, align 8
  %29 = call noundef signext i8 @_ZNK5clang9FPOptions20getConstRoundingModeEv(ptr noundef nonnull align 4 dereferenceable(4) %28)
  %30 = icmp ne i8 %27, %29
  br i1 %30, label %31, label %34

31:                                               ; preds = %26
  %32 = load i32, ptr %6, align 4
  %33 = or i32 %32, 56
  store i32 %33, ptr %6, align 4
  br label %34

34:                                               ; preds = %31, %26
  %35 = call noundef i32 @_ZNK5clang9FPOptions25getSpecifiedExceptionModeEv(ptr noundef nonnull align 4 dereferenceable(4) %8)
  %36 = load ptr, ptr %5, align 8
  %37 = call noundef i32 @_ZNK5clang9FPOptions25getSpecifiedExceptionModeEv(ptr noundef nonnull align 4 dereferenceable(4) %36)
  %38 = icmp ne i32 %35, %37
  br i1 %38, label %39, label %42

39:                                               ; preds = %34
  %40 = load i32, ptr %6, align 4
  %41 = or i32 %40, 192
  store i32 %41, ptr %6, align 4
  br label %42

42:                                               ; preds = %39, %34
  %43 = call noundef zeroext i1 @_ZNK5clang9FPOptions18getAllowFEnvAccessEv(ptr noundef nonnull align 4 dereferenceable(4) %8)
  %44 = zext i1 %43 to i32
  %45 = load ptr, ptr %5, align 8
  %46 = call noundef zeroext i1 @_ZNK5clang9FPOptions18getAllowFEnvAccessEv(ptr noundef nonnull align 4 dereferenceable(4) %45)
  %47 = zext i1 %46 to i32
  %48 = icmp ne i32 %44, %47
  br i1 %48, label %49, label %52

49:                                               ; preds = %42
  %50 = load i32, ptr %6, align 4
  %51 = or i32 %50, 256
  store i32 %51, ptr %6, align 4
  br label %52

52:                                               ; preds = %49, %42
  %53 = call noundef zeroext i1 @_ZNK5clang9FPOptions21getAllowFPReassociateEv(ptr noundef nonnull align 4 dereferenceable(4) %8)
  %54 = zext i1 %53 to i32
  %55 = load ptr, ptr %5, align 8
  %56 = call noundef zeroext i1 @_ZNK5clang9FPOptions21getAllowFPReassociateEv(ptr noundef nonnull align 4 dereferenceable(4) %55)
  %57 = zext i1 %56 to i32
  %58 = icmp ne i32 %54, %57
  br i1 %58, label %59, label %62

59:                                               ; preds = %52
  %60 = load i32, ptr %6, align 4
  %61 = or i32 %60, 512
  store i32 %61, ptr %6, align 4
  br label %62

62:                                               ; preds = %59, %52
  %63 = call noundef zeroext i1 @_ZNK5clang9FPOptions14getNoHonorNaNsEv(ptr noundef nonnull align 4 dereferenceable(4) %8)
  %64 = zext i1 %63 to i32
  %65 = load ptr, ptr %5, align 8
  %66 = call noundef zeroext i1 @_ZNK5clang9FPOptions14getNoHonorNaNsEv(ptr noundef nonnull align 4 dereferenceable(4) %65)
  %67 = zext i1 %66 to i32
  %68 = icmp ne i32 %64, %67
  br i1 %68, label %69, label %72

69:                                               ; preds = %62
  %70 = load i32, ptr %6, align 4
  %71 = or i32 %70, 1024
  store i32 %71, ptr %6, align 4
  br label %72

72:                                               ; preds = %69, %62
  %73 = call noundef zeroext i1 @_ZNK5clang9FPOptions14getNoHonorInfsEv(ptr noundef nonnull align 4 dereferenceable(4) %8)
  %74 = zext i1 %73 to i32
  %75 = load ptr, ptr %5, align 8
  %76 = call noundef zeroext i1 @_ZNK5clang9FPOptions14getNoHonorInfsEv(ptr noundef nonnull align 4 dereferenceable(4) %75)
  %77 = zext i1 %76 to i32
  %78 = icmp ne i32 %74, %77
  br i1 %78, label %79, label %82

79:                                               ; preds = %72
  %80 = load i32, ptr %6, align 4
  %81 = or i32 %80, 2048
  store i32 %81, ptr %6, align 4
  br label %82

82:                                               ; preds = %79, %72
  %83 = call noundef zeroext i1 @_ZNK5clang9FPOptions15getNoSignedZeroEv(ptr noundef nonnull align 4 dereferenceable(4) %8)
  %84 = zext i1 %83 to i32
  %85 = load ptr, ptr %5, align 8
  %86 = call noundef zeroext i1 @_ZNK5clang9FPOptions15getNoSignedZeroEv(ptr noundef nonnull align 4 dereferenceable(4) %85)
  %87 = zext i1 %86 to i32
  %88 = icmp ne i32 %84, %87
  br i1 %88, label %89, label %92

89:                                               ; preds = %82
  %90 = load i32, ptr %6, align 4
  %91 = or i32 %90, 4096
  store i32 %91, ptr %6, align 4
  br label %92

92:                                               ; preds = %89, %82
  %93 = call noundef zeroext i1 @_ZNK5clang9FPOptions18getAllowReciprocalEv(ptr noundef nonnull align 4 dereferenceable(4) %8)
  %94 = zext i1 %93 to i32
  %95 = load ptr, ptr %5, align 8
  %96 = call noundef zeroext i1 @_ZNK5clang9FPOptions18getAllowReciprocalEv(ptr noundef nonnull align 4 dereferenceable(4) %95)
  %97 = zext i1 %96 to i32
  %98 = icmp ne i32 %94, %97
  br i1 %98, label %99, label %102

99:                                               ; preds = %92
  %100 = load i32, ptr %6, align 4
  %101 = or i32 %100, 8192
  store i32 %101, ptr %6, align 4
  br label %102

102:                                              ; preds = %99, %92
  %103 = call noundef zeroext i1 @_ZNK5clang9FPOptions18getAllowApproxFuncEv(ptr noundef nonnull align 4 dereferenceable(4) %8)
  %104 = zext i1 %103 to i32
  %105 = load ptr, ptr %5, align 8
  %106 = call noundef zeroext i1 @_ZNK5clang9FPOptions18getAllowApproxFuncEv(ptr noundef nonnull align 4 dereferenceable(4) %105)
  %107 = zext i1 %106 to i32
  %108 = icmp ne i32 %104, %107
  br i1 %108, label %109, label %112

109:                                              ; preds = %102
  %110 = load i32, ptr %6, align 4
  %111 = or i32 %110, 16384
  store i32 %111, ptr %6, align 4
  br label %112

112:                                              ; preds = %109, %102
  %113 = call noundef i32 @_ZNK5clang9FPOptions15getFPEvalMethodEv(ptr noundef nonnull align 4 dereferenceable(4) %8)
  %114 = load ptr, ptr %5, align 8
  %115 = call noundef i32 @_ZNK5clang9FPOptions15getFPEvalMethodEv(ptr noundef nonnull align 4 dereferenceable(4) %114)
  %116 = icmp ne i32 %113, %115
  br i1 %116, label %117, label %120

117:                                              ; preds = %112
  %118 = load i32, ptr %6, align 4
  %119 = or i32 %118, 98304
  store i32 %119, ptr %6, align 4
  br label %120

120:                                              ; preds = %117, %112
  %121 = call noundef i32 @_ZNK5clang9FPOptions25getFloat16ExcessPrecisionEv(ptr noundef nonnull align 4 dereferenceable(4) %8)
  %122 = load ptr, ptr %5, align 8
  %123 = call noundef i32 @_ZNK5clang9FPOptions25getFloat16ExcessPrecisionEv(ptr noundef nonnull align 4 dereferenceable(4) %122)
  %124 = icmp ne i32 %121, %123
  br i1 %124, label %125, label %128

125:                                              ; preds = %120
  %126 = load i32, ptr %6, align 4
  %127 = or i32 %126, 393216
  store i32 %127, ptr %6, align 4
  br label %128

128:                                              ; preds = %125, %120
  %129 = call noundef i32 @_ZNK5clang9FPOptions26getBFloat16ExcessPrecisionEv(ptr noundef nonnull align 4 dereferenceable(4) %8)
  %130 = load ptr, ptr %5, align 8
  %131 = call noundef i32 @_ZNK5clang9FPOptions26getBFloat16ExcessPrecisionEv(ptr noundef nonnull align 4 dereferenceable(4) %130)
  %132 = icmp ne i32 %129, %131
  br i1 %132, label %133, label %136

133:                                              ; preds = %128
  %134 = load i32, ptr %6, align 4
  %135 = or i32 %134, 1572864
  store i32 %135, ptr %6, align 4
  br label %136

136:                                              ; preds = %133, %128
  %137 = call noundef zeroext i1 @_ZNK5clang9FPOptions12getMathErrnoEv(ptr noundef nonnull align 4 dereferenceable(4) %8)
  %138 = zext i1 %137 to i32
  %139 = load ptr, ptr %5, align 8
  %140 = call noundef zeroext i1 @_ZNK5clang9FPOptions12getMathErrnoEv(ptr noundef nonnull align 4 dereferenceable(4) %139)
  %141 = zext i1 %140 to i32
  %142 = icmp ne i32 %138, %141
  br i1 %142, label %143, label %146

143:                                              ; preds = %136
  %144 = load i32, ptr %6, align 4
  %145 = or i32 %144, 2097152
  store i32 %145, ptr %6, align 4
  br label %146

146:                                              ; preds = %143, %136
  %147 = call noundef i32 @_ZNK5clang9FPOptions15getComplexRangeEv(ptr noundef nonnull align 4 dereferenceable(4) %8)
  %148 = load ptr, ptr %5, align 8
  %149 = call noundef i32 @_ZNK5clang9FPOptions15getComplexRangeEv(ptr noundef nonnull align 4 dereferenceable(4) %148)
  %150 = icmp ne i32 %147, %149
  br i1 %150, label %151, label %154

151:                                              ; preds = %146
  %152 = load i32, ptr %6, align 4
  %153 = or i32 %152, 12582912
  store i32 %153, ptr %6, align 4
  br label %154

154:                                              ; preds = %151, %146
  call void @llvm.memcpy.p0.p0.i64(ptr align 4 %7, ptr align 4 %8, i64 4, i1 false)
  %155 = load i32, ptr %6, align 4
  %156 = getelementptr inbounds nuw %"class.clang::FPOptions", ptr %7, i32 0, i32 0
  %157 = load i32, ptr %156, align 4
  call void @_ZN5clang17FPOptionsOverrideC2ENS_9FPOptionsEj(ptr noundef nonnull align 4 dereferenceable(8) %3, i32 %157, i32 noundef %155)
  %158 = load i64, ptr %3, align 4
  ret i64 %158
}