; Function Attrs: mustprogress nofree norecurse nosync nounwind willreturn memory(argmem: read) uwtable
define dso_local range(i64 0, 72057594037927936) i64 @_ZNK5clang9FPOptions14getChangesSlowERKS0_(ptr nocapture noundef nonnull readonly align 4 dereferenceable(4) %0, ptr nocapture noundef nonnull readonly align 4 dereferenceable(4) %1) local_unnamed_addr #3 align 2 {
  %3 = load i32, ptr %0, align 4
  %4 = load i32, ptr %1, align 4
  %5 = xor i32 %4, %3
  %6 = and i32 %5, 3
  %.not = icmp eq i32 %6, 0
  %spec.select = select i1 %.not, i32 0, i32 3
  %7 = and i32 %3, 4
  %8 = icmp ne i32 %7, 0
  %9 = and i32 %4, 4
  %10 = icmp ne i32 %9, 0
  %11 = xor i1 %8, %10
  %12 = or disjoint i32 %spec.select, 4
  %.1 = select i1 %11, i32 %12, i32 %spec.select
  %13 = and i32 %5, 56
  %.not34 = icmp eq i32 %13, 0
  %14 = or disjoint i32 %.1, 56
  %.2 = select i1 %.not34, i32 %.1, i32 %14
  %15 = and i32 %5, 192
  %.not35 = icmp eq i32 %15, 0
  %16 = or disjoint i32 %.2, 192
  %.3 = select i1 %.not35, i32 %.2, i32 %16
  %17 = and i32 %3, 256
  %18 = icmp ne i32 %17, 0
  %19 = and i32 %4, 256
  %20 = icmp ne i32 %19, 0
  %21 = xor i1 %18, %20
  %22 = or i32 %.3, 256
  %.4 = select i1 %21, i32 %22, i32 %.3
  %23 = and i32 %3, 512
  %24 = icmp ne i32 %23, 0
  %25 = and i32 %4, 512
  %26 = icmp ne i32 %25, 0
  %27 = xor i1 %24, %26
  %28 = or i32 %.4, 512
  %.5 = select i1 %27, i32 %28, i32 %.4
  %29 = and i32 %3, 1024
  %30 = icmp ne i32 %29, 0
  %31 = and i32 %4, 1024
  %32 = icmp ne i32 %31, 0
  %33 = xor i1 %30, %32
  %34 = or i32 %.5, 1024
  %.6 = select i1 %33, i32 %34, i32 %.5
  %35 = and i32 %3, 2048
  %36 = icmp ne i32 %35, 0
  %37 = and i32 %4, 2048
  %38 = icmp ne i32 %37, 0
  %39 = xor i1 %36, %38
  %40 = or i32 %.6, 2048
  %.7 = select i1 %39, i32 %40, i32 %.6
  %41 = and i32 %3, 4096
  %42 = icmp ne i32 %41, 0
  %43 = and i32 %4, 4096
  %44 = icmp ne i32 %43, 0
  %45 = xor i1 %42, %44
  %46 = or i32 %.7, 4096
  %.8 = select i1 %45, i32 %46, i32 %.7
  %47 = and i32 %3, 8192
  %48 = icmp ne i32 %47, 0
  %49 = and i32 %4, 8192
  %50 = icmp ne i32 %49, 0
  %51 = xor i1 %48, %50
  %52 = or i32 %.8, 8192
  %.9 = select i1 %51, i32 %52, i32 %.8
  %53 = and i32 %3, 16384
  %54 = icmp ne i32 %53, 0
  %55 = and i32 %4, 16384
  %56 = icmp ne i32 %55, 0
  %57 = xor i1 %54, %56
  %58 = or i32 %.9, 16384
  %.10 = select i1 %57, i32 %58, i32 %.9
  %59 = and i32 %5, 98304
  %.not43 = icmp eq i32 %59, 0
  %60 = or i32 %.10, 98304
  %.11 = select i1 %.not43, i32 %.10, i32 %60
  %61 = and i32 %5, 393216
  %.not44 = icmp eq i32 %61, 0
  %62 = or i32 %.11, 393216
  %.12 = select i1 %.not44, i32 %.11, i32 %62
  %63 = and i32 %5, 1572864
  %.not45 = icmp eq i32 %63, 0
  %64 = or i32 %.12, 1572864
  %.13 = select i1 %.not45, i32 %.12, i32 %64
  %65 = and i32 %3, 2097152
  %66 = icmp ne i32 %65, 0
  %67 = and i32 %4, 2097152
  %68 = icmp ne i32 %67, 0
  %69 = xor i1 %66, %68
  %70 = or i32 %.13, 2097152
  %.14 = select i1 %69, i32 %70, i32 %.13
  %71 = and i32 %5, 12582912
  %.not47 = icmp eq i32 %71, 0
  %72 = or i32 %.14, 12582912
  %.15 = select i1 %.not47, i32 %.14, i32 %72
  %.sroa.2.0.insert.ext = zext nneg i32 %.15 to i64
  %.sroa.2.0.insert.shift = shl nuw nsw i64 %.sroa.2.0.insert.ext, 32
  %.sroa.0.0.insert.ext = zext i32 %3 to i64
  %.sroa.0.0.insert.insert = or disjoint i64 %.sroa.2.0.insert.shift, %.sroa.0.0.insert.ext
  ret i64 %.sroa.0.0.insert.insert
}